; Function Attrs: mustprogress uwtable
define hidden void @_ZN4smt211free_parserEPNS_6parserE(ptr noundef %p) local_unnamed_addr #3 {
entry:
  %cmp.i = icmp eq ptr %p, null
  br i1 %cmp.i, label %_Z7deallocIN4smt26parserEEvPT_.exit, label %if.end.i

if.end.i:                                         ; preds = %entry
  tail call void @_ZN4smt26parserD2Ev(ptr noundef nonnull align 8 dereferenceable(2168) %p) #19
  tail call void @_ZN6memory10deallocateEPv(ptr noundef nonnull %p)
  br label %_Z7deallocIN4smt26parserEEvPT_.exit

_Z7deallocIN4smt26parserEEvPT_.exit:              ; preds = %entry, %if.end.i
  ret void
}